target datalayout = "e-m:e-p270:32:32-p271:32:32-p272:64:64-i64:64-i128:128-f80:128-n8:16:32:64-S128"
target triple = "x86_64-pc-linux-gnu"

%struct.sp_int = type { i16, i16, [129 x i64] }
%struct.sp_int_minimal = type { i16, i16, [1 x i64] }

; Function Attrs: nounwind uwtable
define i32 @sp_set_bit(ptr noundef %0, i32 noundef %1) #0 {
  %3 = alloca ptr, align 8
  %4 = alloca i32, align 4
  %5 = alloca i32, align 4
  %6 = alloca i16, align 2
  %7 = alloca i32, align 4
  %8 = alloca i32, align 4
  store ptr %0, ptr %3, align 8, !tbaa !3
  store i32 %1, ptr %4, align 4, !tbaa !8
  call void @llvm.lifetime.start.p0(i64 4, ptr %5) #8
  store i32 0, ptr %5, align 4, !tbaa !8
  call void @llvm.lifetime.start.p0(i64 2, ptr %6) #8
  %9 = load i32, ptr %4, align 4, !tbaa !8
  %10 = ashr i32 %9, 6
  %11 = trunc i32 %10 to i16
  store i16 %11, ptr %6, align 2, !tbaa !32
  %12 = load ptr, ptr %3, align 8, !tbaa !3
  %13 = icmp eq ptr %12, null
  br i1 %13, label %25, label %14

14:                                               ; preds = %2
  %15 = load i32, ptr %4, align 4, !tbaa !8
  %16 = icmp slt i32 %15, 0
  br i1 %16, label %25, label %17

17:                                               ; preds = %14
  %18 = load i16, ptr %6, align 2, !tbaa !32
  %19 = zext i16 %18 to i32
  %20 = load ptr, ptr %3, align 8, !tbaa !3
  %21 = getelementptr inbounds nuw %struct.sp_int, ptr %20, i32 0, i32 1
  %22 = load i16, ptr %21, align 2, !tbaa !12
  %23 = zext i16 %22 to i32
  %24 = icmp sge i32 %19, %23
  br i1 %24, label %25, label %26

25:                                               ; preds = %17, %14, %2
  store i32 -98, ptr %5, align 4, !tbaa !8
  br label %26

26:                                               ; preds = %25, %17
  %27 = load i32, ptr %5, align 4, !tbaa !8
  %28 = icmp eq i32 %27, 0
  br i1 %28, label %29, label %76

29:                                               ; preds = %26
  call void @llvm.lifetime.start.p0(i64 4, ptr %7) #8
  %30 = load i32, ptr %4, align 4, !tbaa !8
  %31 = and i32 %30, 63
  store i32 %31, ptr %7, align 4, !tbaa !8
  call void @llvm.lifetime.start.p0(i64 4, ptr %8) #8
  %32 = load ptr, ptr %3, align 8, !tbaa !3
  %33 = getelementptr inbounds nuw %struct.sp_int, ptr %32, i32 0, i32 0
  %34 = load i16, ptr %33, align 8, !tbaa !15
  %35 = zext i16 %34 to i32
  store i32 %35, ptr %8, align 4, !tbaa !8
  br label %36

36:                                               ; preds = %47, %29
  %37 = load i32, ptr %8, align 4, !tbaa !8
  %38 = load i16, ptr %6, align 2, !tbaa !32
  %39 = zext i16 %38 to i32
  %40 = icmp ule i32 %37, %39
  br i1 %40, label %41, label %50

41:                                               ; preds = %36
  %42 = load ptr, ptr %3, align 8, !tbaa !3
  %43 = getelementptr inbounds nuw %struct.sp_int, ptr %42, i32 0, i32 2
  %44 = load i32, ptr %8, align 4, !tbaa !8
  %45 = zext i32 %44 to i64
  %46 = getelementptr inbounds nuw [129 x i64], ptr %43, i64 0, i64 %45
  store i64 0, ptr %46, align 8, !tbaa !16
  br label %47

47:                                               ; preds = %41
  %48 = load i32, ptr %8, align 4, !tbaa !8
  %49 = add i32 %48, 1
  store i32 %49, ptr %8, align 4, !tbaa !8
  br label %36, !llvm.loop !41

50:                                               ; preds = %36
  %51 = load i32, ptr %7, align 4, !tbaa !8
  %52 = zext i32 %51 to i64
  %53 = shl i64 1, %52
  %54 = load ptr, ptr %3, align 8, !tbaa !3
  %55 = getelementptr inbounds nuw %struct.sp_int, ptr %54, i32 0, i32 2
  %56 = load i16, ptr %6, align 2, !tbaa !32
  %57 = zext i16 %56 to i64
  %58 = getelementptr inbounds nuw [129 x i64], ptr %55, i64 0, i64 %57
  %59 = load i64, ptr %58, align 8, !tbaa !16
  %60 = or i64 %59, %53
  store i64 %60, ptr %58, align 8, !tbaa !16
  %61 = load ptr, ptr %3, align 8, !tbaa !3
  %62 = getelementptr inbounds nuw %struct.sp_int, ptr %61, i32 0, i32 0
  %63 = load i16, ptr %62, align 8, !tbaa !15
  %64 = zext i16 %63 to i32
  %65 = load i16, ptr %6, align 2, !tbaa !32
  %66 = zext i16 %65 to i32
  %67 = icmp sle i32 %64, %66
  br i1 %67, label %68, label %75

68:                                               ; preds = %50
  %69 = load i16, ptr %6, align 2, !tbaa !32
  %70 = zext i16 %69 to i32
  %71 = add i32 %70, 1
  %72 = trunc i32 %71 to i16
  %73 = load ptr, ptr %3, align 8, !tbaa !3
  %74 = getelementptr inbounds nuw %struct.sp_int, ptr %73, i32 0, i32 0
  store i16 %72, ptr %74, align 8, !tbaa !15
  br label %75

75:                                               ; preds = %68, %50
  call void @llvm.lifetime.end.p0(i64 4, ptr %8) #8
  call void @llvm.lifetime.end.p0(i64 4, ptr %7) #8
  br label %76

76:                                               ; preds = %75, %26
  %77 = load i32, ptr %5, align 4, !tbaa !8
  call void @llvm.lifetime.end.p0(i64 2, ptr %6) #8
  call void @llvm.lifetime.end.p0(i64 4, ptr %5) #8
  ret i32 %77
}

; Function Attrs: nounwind uwtable
define internal void @_sp_zero(ptr noundef %0) #0 {
  %2 = alloca ptr, align 8
  %3 = alloca ptr, align 8
  store ptr %0, ptr %2, align 8, !tbaa !3
  call void @llvm.lifetime.start.p0(i64 8, ptr %3) #8
  %4 = load ptr, ptr %2, align 8, !tbaa !3
  store ptr %4, ptr %3, align 8, !tbaa !10
  %5 = load ptr, ptr %3, align 8, !tbaa !10
  %6 = getelementptr inbounds nuw %struct.sp_int_minimal, ptr %5, i32 0, i32 0
  store i16 0, ptr %6, align 8, !tbaa !20
  %7 = load ptr, ptr %3, align 8, !tbaa !10
  %8 = getelementptr inbounds nuw %struct.sp_int_minimal, ptr %7, i32 0, i32 2
  %9 = getelementptr inbounds [1 x i64], ptr %8, i64 0, i64 0
  store i64 0, ptr %9, align 8, !tbaa !16
  call void @llvm.lifetime.end.p0(i64 8, ptr %3) #8
  ret void
}

; Function Attrs: nounwind uwtable
define i32 @sp_2expt(ptr noundef %0, i32 noundef %1) #0 {
  %3 = alloca ptr, align 8
  %4 = alloca i32, align 4
  %5 = alloca i32, align 4
  store ptr %0, ptr %3, align 8, !tbaa !3
  store i32 %1, ptr %4, align 4, !tbaa !8
  call void @llvm.lifetime.start.p0(i64 4, ptr %5) #8
  store i32 0, ptr %5, align 4, !tbaa !8
  %6 = load ptr, ptr %3, align 8, !tbaa !3
  %7 = icmp eq ptr %6, null
  br i1 %7, label %11, label %8

8:                                                ; preds = %2
  %9 = load i32, ptr %4, align 4, !tbaa !8
  %10 = icmp slt i32 %9, 0
  br i1 %10, label %11, label %12

11:                                               ; preds = %8, %2
  store i32 -98, ptr %5, align 4, !tbaa !8
  br label %12

12:                                               ; preds = %11, %8
  %13 = load i32, ptr %5, align 4, !tbaa !8
  %14 = icmp eq i32 %13, 0
  br i1 %14, label %15, label %20

15:                                               ; preds = %12
  %16 = load ptr, ptr %3, align 8, !tbaa !3
  call void @_sp_zero(ptr noundef %16)
  %17 = load ptr, ptr %3, align 8, !tbaa !3
  %18 = load i32, ptr %4, align 4, !tbaa !8
  %19 = call i32 @sp_set_bit(ptr noundef %17, i32 noundef %18)
  store i32 %19, ptr %5, align 4, !tbaa !8
  br label %20

20:                                               ; preds = %15, %12
  %21 = load i32, ptr %5, align 4, !tbaa !8
  call void @llvm.lifetime.end.p0(i64 4, ptr %5) #8
  ret i32 %21
}