; Function Attrs: mustprogress nofree norecurse nosync nounwind willreturn memory(argmem: readwrite) uwtable
define range(i32 -98, 1) i32 @sp_2expt(ptr noundef captures(address_is_null) %0, i32 noundef %1) local_unnamed_addr #3 {
  %3 = icmp ne ptr %0, null
  %4 = icmp sgt i32 %1, -1
  %or.cond.not = and i1 %3, %4
  br i1 %or.cond.not, label %5, label %sp_set_bit.exit

5:                                                ; preds = %2
  store i16 0, ptr %0, align 8, !tbaa !3
  %6 = getelementptr inbounds nuw i8, ptr %0, i64 8
  store i64 0, ptr %6, align 8, !tbaa !8
  %7 = lshr i32 %1, 6
  %8 = and i32 %7, 65535
  %9 = getelementptr inbounds nuw i8, ptr %0, i64 2
  %10 = load i16, ptr %9, align 2, !tbaa !10
  %11 = zext i16 %10 to i32
  %.not.i = icmp samesign ult i32 %8, %11
  br i1 %.not.i, label %12, label %sp_set_bit.exit

12:                                               ; preds = %5
  %13 = and i32 %1, 63
  %14 = shl nuw nsw i32 %8, 3
  %narrow.i = add nuw nsw i32 %14, 8
  %15 = zext nneg i32 %narrow.i to i64
  tail call void @llvm.memset.p0.i64(ptr noundef nonnull align 8 dereferenceable(1) %6, i8 0, i64 %15, i1 false), !tbaa !8
  %16 = zext nneg i32 %13 to i64
  %17 = shl nuw i64 1, %16
  %18 = zext nneg i32 %8 to i64
  %19 = getelementptr inbounds nuw [129 x i64], ptr %6, i64 0, i64 %18
  %20 = load i64, ptr %19, align 8, !tbaa !8
  %21 = or i64 %20, %17
  store i64 %21, ptr %19, align 8, !tbaa !8
  %22 = trunc i32 %7 to i16
  %23 = add i16 %22, 1
  store i16 %23, ptr %0, align 8, !tbaa !12
  br label %sp_set_bit.exit

sp_set_bit.exit:                                  ; preds = %12, %5, %2
  %.0 = phi i32 [ -98, %2 ], [ 0, %12 ], [ -98, %5 ]
  ret i32 %.0
}